; Function Attrs: mustprogress uwtable
define void @_ZNK17RichParameterList11getMatrix44ERK7QString(ptr dead_on_unwind noalias writable sret(%"class.vcg::Matrix44") align 4 %0, ptr noundef nonnull align 8 dereferenceable(24) %1, ptr noundef nonnull align 8 dereferenceable(8) %2) local_unnamed_addr #9 align 2 {
  %4 = tail call noundef nonnull align 8 dereferenceable(56) ptr @_ZNK17RichParameterList18getParameterByNameERK7QString(ptr noundef nonnull align 8 dereferenceable(24) %1, ptr noundef nonnull align 8 dereferenceable(8) %2)
  %5 = tail call noundef nonnull align 8 dereferenceable(8) ptr @_ZNK13RichParameter5valueEv(ptr noundef nonnull align 8 dereferenceable(56) %4)
  %6 = load ptr, ptr %5, align 8
  %7 = getelementptr inbounds i8, ptr %6, i64 48
  %8 = load ptr, ptr %7, align 8
  tail call void %8(ptr dead_on_unwind writable sret(%"class.vcg::Matrix44") align 4 %0, ptr noundef nonnull align 8 dereferenceable(8) %5)
  ret void
}